target datalayout = "e-m:e-p270:32:32-p271:32:32-p272:64:64-i64:64-i128:128-f80:128-n8:16:32:64-S128"
target triple = "x86_64-pc-linux-gnu"

@.str.4 = private unnamed_addr constant [6 x i8] c"*%i\0D\0A\00", align 1
@.str.5 = private unnamed_addr constant [6 x i8] c"$%U\0D\0A\00", align 1
@.str.6 = private unnamed_addr constant [3 x i8] c"\0D\0A\00", align 1

; Function Attrs: nounwind uwtable
define internal i64 @bulklen(i64 noundef %0) #0 {
  %2 = alloca i64, align 8
  store i64 %0, ptr %2, align 8, !tbaa !19
  %3 = load i64, ptr %2, align 8, !tbaa !19
  %4 = call i32 @countDigits(i64 noundef %3)
  %5 = add i32 1, %4
  %6 = add i32 %5, 2
  %7 = zext i32 %6 to i64
  %8 = load i64, ptr %2, align 8, !tbaa !19
  %9 = add i64 %7, %8
  %10 = add i64 %9, 2
  ret i64 %10
}

; Function Attrs: nounwind uwtable
define internal i32 @countDigits(i64 noundef %0) #0 {
  %2 = alloca i32, align 4
  %3 = alloca i64, align 8
  %4 = alloca i32, align 4
  %5 = alloca i32, align 4
  store i64 %0, ptr %3, align 8, !tbaa !19
  call void @llvm.lifetime.start.p0(i64 4, ptr %4) #10
  store i32 1, ptr %4, align 4, !tbaa !29
  br label %6

6:                                                ; preds = %29, %1
  %7 = load i64, ptr %3, align 8, !tbaa !19
  %8 = icmp ult i64 %7, 10
  br i1 %8, label %9, label %11

9:                                                ; preds = %6
  %10 = load i32, ptr %4, align 4, !tbaa !29
  store i32 %10, ptr %2, align 4
  store i32 1, ptr %5, align 4
  br label %34

11:                                               ; preds = %6
  %12 = load i64, ptr %3, align 8, !tbaa !19
  %13 = icmp ult i64 %12, 100
  br i1 %13, label %14, label %17

14:                                               ; preds = %11
  %15 = load i32, ptr %4, align 4, !tbaa !29
  %16 = add i32 %15, 1
  store i32 %16, ptr %2, align 4
  store i32 1, ptr %5, align 4
  br label %34

17:                                               ; preds = %11
  %18 = load i64, ptr %3, align 8, !tbaa !19
  %19 = icmp ult i64 %18, 1000
  br i1 %19, label %20, label %23

20:                                               ; preds = %17
  %21 = load i32, ptr %4, align 4, !tbaa !29
  %22 = add i32 %21, 2
  store i32 %22, ptr %2, align 4
  store i32 1, ptr %5, align 4
  br label %34

23:                                               ; preds = %17
  %24 = load i64, ptr %3, align 8, !tbaa !19
  %25 = icmp ult i64 %24, 10000
  br i1 %25, label %26, label %29

26:                                               ; preds = %23
  %27 = load i32, ptr %4, align 4, !tbaa !29
  %28 = add i32 %27, 3
  store i32 %28, ptr %2, align 4
  store i32 1, ptr %5, align 4
  br label %34

29:                                               ; preds = %23
  %30 = load i64, ptr %3, align 8, !tbaa !19
  %31 = udiv i64 %30, 10000
  store i64 %31, ptr %3, align 8, !tbaa !19
  %32 = load i32, ptr %4, align 4, !tbaa !29
  %33 = add i32 %32, 4
  store i32 %33, ptr %4, align 4, !tbaa !29
  br label %6

34:                                               ; preds = %26, %20, %14, %9
  call void @llvm.lifetime.end.p0(i64 4, ptr %4) #10
  %35 = load i32, ptr %2, align 4
  ret i32 %35
}

; Function Attrs: nounwind uwtable
define i64 @redisFormatSdsCommandArgv(ptr noundef %0, i32 noundef %1, ptr noundef %2, ptr noundef %3) #0 {
  %5 = alloca i64, align 8
  %6 = alloca ptr, align 8
  %7 = alloca i32, align 4
  %8 = alloca ptr, align 8
  %9 = alloca ptr, align 8
  %10 = alloca ptr, align 8
  %11 = alloca ptr, align 8
  %12 = alloca i64, align 8
  %13 = alloca i64, align 8
  %14 = alloca i32, align 4
  %15 = alloca i32, align 4
  store ptr %0, ptr %6, align 8, !tbaa !24
  store i32 %1, ptr %7, align 4, !tbaa !29
  store ptr %2, ptr %8, align 8, !tbaa !24
  store ptr %3, ptr %9, align 8, !tbaa !37
  call void @llvm.lifetime.start.p0(i64 8, ptr %10) #10
  call void @llvm.lifetime.start.p0(i64 8, ptr %11) #10
  call void @llvm.lifetime.start.p0(i64 8, ptr %12) #10
  call void @llvm.lifetime.start.p0(i64 8, ptr %13) #10
  call void @llvm.lifetime.start.p0(i64 4, ptr %14) #10
  %16 = load ptr, ptr %6, align 8, !tbaa !24
  %17 = icmp eq ptr %16, null
  br i1 %17, label %18, label %19

18:                                               ; preds = %4
  store i64 -1, ptr %5, align 8
  store i32 1, ptr %15, align 4
  br label %115

19:                                               ; preds = %4
  %20 = load i32, ptr %7, align 4, !tbaa !29
  %21 = sext i32 %20 to i64
  %22 = call i32 @countDigits(i64 noundef %21)
  %23 = add i32 1, %22
  %24 = add i32 %23, 2
  %25 = zext i32 %24 to i64
  store i64 %25, ptr %12, align 8, !tbaa !39
  store i32 0, ptr %14, align 4, !tbaa !29
  br label %26

26:                                               ; preds = %52, %19
  %27 = load i32, ptr %14, align 4, !tbaa !29
  %28 = load i32, ptr %7, align 4, !tbaa !29
  %29 = icmp slt i32 %27, %28
  br i1 %29, label %30, label %55

30:                                               ; preds = %26
  %31 = load ptr, ptr %9, align 8, !tbaa !37
  %32 = icmp ne ptr %31, null
  br i1 %32, label %33, label %39

33:                                               ; preds = %30
  %34 = load ptr, ptr %9, align 8, !tbaa !37
  %35 = load i32, ptr %14, align 4, !tbaa !29
  %36 = sext i32 %35 to i64
  %37 = getelementptr inbounds i64, ptr %34, i64 %36
  %38 = load i64, ptr %37, align 8, !tbaa !19
  br label %46

39:                                               ; preds = %30
  %40 = load ptr, ptr %8, align 8, !tbaa !24
  %41 = load i32, ptr %14, align 4, !tbaa !29
  %42 = sext i32 %41 to i64
  %43 = getelementptr inbounds ptr, ptr %40, i64 %42
  %44 = load ptr, ptr %43, align 8, !tbaa !26
  %45 = call i64 @strlen(ptr noundef %44) #11
  br label %46

46:                                               ; preds = %39, %33
  %47 = phi i64 [ %38, %33 ], [ %45, %39 ]
  store i64 %47, ptr %13, align 8, !tbaa !39
  %48 = load i64, ptr %13, align 8, !tbaa !39
  %49 = call i64 @bulklen(i64 noundef %48)
  %50 = load i64, ptr %12, align 8, !tbaa !39
  %51 = add i64 %50, %49
  store i64 %51, ptr %12, align 8, !tbaa !39
  br label %52

52:                                               ; preds = %46
  %53 = load i32, ptr %14, align 4, !tbaa !29
  %54 = add nsw i32 %53, 1
  store i32 %54, ptr %14, align 4, !tbaa !29
  br label %26

55:                                               ; preds = %26
  %56 = call ptr @hi_sdsempty()
  store ptr %56, ptr %10, align 8, !tbaa !26
  %57 = load ptr, ptr %10, align 8, !tbaa !26
  %58 = icmp eq ptr %57, null
  br i1 %58, label %59, label %60

59:                                               ; preds = %55
  store i64 -1, ptr %5, align 8
  store i32 1, ptr %15, align 4
  br label %115

60:                                               ; preds = %55
  %61 = load ptr, ptr %10, align 8, !tbaa !26
  %62 = load i64, ptr %12, align 8, !tbaa !39
  %63 = call ptr @hi_sdsMakeRoomFor(ptr noundef %61, i64 noundef %62)
  store ptr %63, ptr %11, align 8, !tbaa !26
  %64 = load ptr, ptr %11, align 8, !tbaa !26
  %65 = icmp eq ptr %64, null
  br i1 %65, label %66, label %68

66:                                               ; preds = %60
  %67 = load ptr, ptr %10, align 8, !tbaa !26
  call void @hi_sdsfree(ptr noundef %67)
  store i64 -1, ptr %5, align 8
  store i32 1, ptr %15, align 4
  br label %115

68:                                               ; preds = %60
  %69 = load ptr, ptr %11, align 8, !tbaa !26
  store ptr %69, ptr %10, align 8, !tbaa !26
  %70 = load ptr, ptr %10, align 8, !tbaa !26
  %71 = load i32, ptr %7, align 4, !tbaa !29
  %72 = call ptr (ptr, ptr, ...) @hi_sdscatfmt(ptr noundef %70, ptr noundef @.str.4, i32 noundef %71)
  store ptr %72, ptr %10, align 8, !tbaa !26
  store i32 0, ptr %14, align 4, !tbaa !29
  br label %73

73:                                               ; preds = %108, %68
  %74 = load i32, ptr %14, align 4, !tbaa !29
  %75 = load i32, ptr %7, align 4, !tbaa !29
  %76 = icmp slt i32 %74, %75
  br i1 %76, label %77, label %111

77:                                               ; preds = %73
  %78 = load ptr, ptr %9, align 8, !tbaa !37
  %79 = icmp ne ptr %78, null
  br i1 %79, label %80, label %86

80:                                               ; preds = %77
  %81 = load ptr, ptr %9, align 8, !tbaa !37
  %82 = load i32, ptr %14, align 4, !tbaa !29
  %83 = sext i32 %82 to i64
  %84 = getelementptr inbounds i64, ptr %81, i64 %83
  %85 = load i64, ptr %84, align 8, !tbaa !19
  br label %93

86:                                               ; preds = %77
  %87 = load ptr, ptr %8, align 8, !tbaa !24
  %88 = load i32, ptr %14, align 4, !tbaa !29
  %89 = sext i32 %88 to i64
  %90 = getelementptr inbounds ptr, ptr %87, i64 %89
  %91 = load ptr, ptr %90, align 8, !tbaa !26
  %92 = call i64 @strlen(ptr noundef %91) #11
  br label %93

93:                                               ; preds = %86, %80
  %94 = phi i64 [ %85, %80 ], [ %92, %86 ]
  store i64 %94, ptr %13, align 8, !tbaa !39
  %95 = load ptr, ptr %10, align 8, !tbaa !26
  %96 = load i64, ptr %13, align 8, !tbaa !39
  %97 = call ptr (ptr, ptr, ...) @hi_sdscatfmt(ptr noundef %95, ptr noundef @.str.5, i64 noundef %96)
  store ptr %97, ptr %10, align 8, !tbaa !26
  %98 = load ptr, ptr %10, align 8, !tbaa !26
  %99 = load ptr, ptr %8, align 8, !tbaa !24
  %100 = load i32, ptr %14, align 4, !tbaa !29
  %101 = sext i32 %100 to i64
  %102 = getelementptr inbounds ptr, ptr %99, i64 %101
  %103 = load ptr, ptr %102, align 8, !tbaa !26
  %104 = load i64, ptr %13, align 8, !tbaa !39
  %105 = call ptr @hi_sdscatlen(ptr noundef %98, ptr noundef %103, i64 noundef %104)
  store ptr %105, ptr %10, align 8, !tbaa !26
  %106 = load ptr, ptr %10, align 8, !tbaa !26
  %107 = call ptr @hi_sdscatlen(ptr noundef %106, ptr noundef @.str.6, i64 noundef 2)
  store ptr %107, ptr %10, align 8, !tbaa !26
  br label %108

108:                                              ; preds = %93
  %109 = load i32, ptr %14, align 4, !tbaa !29
  %110 = add nsw i32 %109, 1
  store i32 %110, ptr %14, align 4, !tbaa !29
  br label %73

111:                                              ; preds = %73
  %112 = load ptr, ptr %10, align 8, !tbaa !26
  %113 = load ptr, ptr %6, align 8, !tbaa !24
  store ptr %112, ptr %113, align 8, !tbaa !26
  %114 = load i64, ptr %12, align 8, !tbaa !39
  store i64 %114, ptr %5, align 8
  store i32 1, ptr %15, align 4
  br label %115

115:                                              ; preds = %111, %66, %59, %18
  call void @llvm.lifetime.end.p0(i64 4, ptr %14) #10
  call void @llvm.lifetime.end.p0(i64 8, ptr %13) #10
  call void @llvm.lifetime.end.p0(i64 8, ptr %12) #10
  call void @llvm.lifetime.end.p0(i64 8, ptr %11) #10
  call void @llvm.lifetime.end.p0(i64 8, ptr %10) #10
  %116 = load i64, ptr %5, align 8
  ret i64 %116
}