; Function Attrs: nounwind uwtable
define i64 @redisFormatSdsCommandArgv(ptr noundef writeonly captures(address_is_null) %0, i32 noundef %1, ptr noundef readonly captures(none) %2, ptr noundef readonly captures(address_is_null) %3) local_unnamed_addr #0 {
  %5 = icmp eq ptr %0, null
  br i1 %5, label %96, label %6

6:                                                ; preds = %4
  %7 = icmp ult i32 %1, 10
  br i1 %7, label %countDigits.exit, label %.lr.ph.i.preheader

.lr.ph.i.preheader:                               ; preds = %6
  %8 = sext i32 %1 to i64
  br label %.lr.ph.i

.lr.ph.i:                                         ; preds = %.lr.ph.i.preheader, %20
  %.017.i = phi i32 [ %22, %20 ], [ 1, %.lr.ph.i.preheader ]
  %.01116.i = phi i64 [ %21, %20 ], [ %8, %.lr.ph.i.preheader ]
  %9 = icmp ult i64 %.01116.i, 100
  br i1 %9, label %10, label %12

10:                                               ; preds = %.lr.ph.i
  %11 = add i32 %.017.i, 1
  br label %countDigits.exit

12:                                               ; preds = %.lr.ph.i
  %13 = icmp ult i64 %.01116.i, 1000
  br i1 %13, label %14, label %16

14:                                               ; preds = %12
  %15 = add i32 %.017.i, 2
  br label %countDigits.exit

16:                                               ; preds = %12
  %17 = icmp ult i64 %.01116.i, 10000
  br i1 %17, label %18, label %20

18:                                               ; preds = %16
  %19 = add i32 %.017.i, 3
  br label %countDigits.exit

20:                                               ; preds = %16
  %21 = udiv i64 %.01116.i, 10000
  %22 = add i32 %.017.i, 4
  %23 = icmp ult i64 %.01116.i, 100000
  br i1 %23, label %countDigits.exit, label %.lr.ph.i

countDigits.exit:                                 ; preds = %20, %6, %10, %14, %18
  %.012.i = phi i32 [ %11, %10 ], [ %15, %14 ], [ %19, %18 ], [ 1, %6 ], [ %22, %20 ]
  %24 = add i32 %.012.i, 3
  %25 = zext i32 %24 to i64
  %26 = icmp sgt i32 %1, 0
  br i1 %26, label %.lr.ph, label %._crit_edge

.lr.ph:                                           ; preds = %countDigits.exit
  %.not47 = icmp eq ptr %3, null
  %wide.trip.count85 = zext nneg i32 %1 to i64
  br i1 %.not47, label %.lr.ph.split.us, label %.lr.ph.split

.lr.ph.split.us:                                  ; preds = %.lr.ph, %bulklen.exit.us
  %indvars.iv82 = phi i64 [ %indvars.iv.next83, %bulklen.exit.us ], [ 0, %.lr.ph ]
  %.03855.us = phi i64 [ %50, %bulklen.exit.us ], [ %25, %.lr.ph ]
  %27 = getelementptr inbounds nuw ptr, ptr %2, i64 %indvars.iv82
  %28 = load ptr, ptr %27, align 8, !tbaa !24
  %29 = tail call i64 @strlen(ptr noundef nonnull dereferenceable(1) %28) #14
  %30 = icmp ult i64 %29, 10
  br i1 %30, label %bulklen.exit.us, label %.lr.ph.i.i.us

.lr.ph.i.i.us:                                    ; preds = %.lr.ph.split.us, %36
  %.017.i.i.us = phi i32 [ %38, %36 ], [ 1, %.lr.ph.split.us ]
  %.01116.i.i.us = phi i64 [ %37, %36 ], [ %29, %.lr.ph.split.us ]
  %31 = icmp ult i64 %.01116.i.i.us, 100
  br i1 %31, label %44, label %32

32:                                               ; preds = %.lr.ph.i.i.us
  %33 = icmp ult i64 %.01116.i.i.us, 1000
  br i1 %33, label %42, label %34

34:                                               ; preds = %32
  %35 = icmp ult i64 %.01116.i.i.us, 10000
  br i1 %35, label %40, label %36

36:                                               ; preds = %34
  %37 = udiv i64 %.01116.i.i.us, 10000
  %38 = add i32 %.017.i.i.us, 4
  %39 = icmp ult i64 %.01116.i.i.us, 100000
  br i1 %39, label %bulklen.exit.us, label %.lr.ph.i.i.us

40:                                               ; preds = %34
  %41 = add i32 %.017.i.i.us, 3
  br label %bulklen.exit.us

42:                                               ; preds = %32
  %43 = add i32 %.017.i.i.us, 2
  br label %bulklen.exit.us

44:                                               ; preds = %.lr.ph.i.i.us
  %45 = add i32 %.017.i.i.us, 1
  br label %bulklen.exit.us

bulklen.exit.us:                                  ; preds = %36, %44, %42, %40, %.lr.ph.split.us
  %.012.i.i.us = phi i32 [ %45, %44 ], [ %43, %42 ], [ %41, %40 ], [ 1, %.lr.ph.split.us ], [ %38, %36 ]
  %46 = add i32 %.012.i.i.us, 3
  %47 = zext i32 %46 to i64
  %48 = add i64 %.03855.us, 2
  %49 = add i64 %48, %29
  %50 = add i64 %49, %47
  %indvars.iv.next83 = add nuw nsw i64 %indvars.iv82, 1
  %exitcond86.not = icmp eq i64 %indvars.iv.next83, %wide.trip.count85
  br i1 %exitcond86.not, label %._crit_edge, label %.lr.ph.split.us

.lr.ph.split:                                     ; preds = %.lr.ph, %bulklen.exit
  %indvars.iv = phi i64 [ %indvars.iv.next, %bulklen.exit ], [ 0, %.lr.ph ]
  %.03855 = phi i64 [ %73, %bulklen.exit ], [ %25, %.lr.ph ]
  %51 = getelementptr inbounds nuw i64, ptr %3, i64 %indvars.iv
  %52 = load i64, ptr %51, align 8, !tbaa !28
  %53 = icmp ult i64 %52, 10
  br i1 %53, label %bulklen.exit, label %.lr.ph.i.i

.lr.ph.i.i:                                       ; preds = %.lr.ph.split, %65
  %.017.i.i = phi i32 [ %67, %65 ], [ 1, %.lr.ph.split ]
  %.01116.i.i = phi i64 [ %66, %65 ], [ %52, %.lr.ph.split ]
  %54 = icmp ult i64 %.01116.i.i, 100
  br i1 %54, label %55, label %57

55:                                               ; preds = %.lr.ph.i.i
  %56 = add i32 %.017.i.i, 1
  br label %bulklen.exit

57:                                               ; preds = %.lr.ph.i.i
  %58 = icmp ult i64 %.01116.i.i, 1000
  br i1 %58, label %59, label %61

59:                                               ; preds = %57
  %60 = add i32 %.017.i.i, 2
  br label %bulklen.exit

61:                                               ; preds = %57
  %62 = icmp ult i64 %.01116.i.i, 10000
  br i1 %62, label %63, label %65

63:                                               ; preds = %61
  %64 = add i32 %.017.i.i, 3
  br label %bulklen.exit

65:                                               ; preds = %61
  %66 = udiv i64 %.01116.i.i, 10000
  %67 = add i32 %.017.i.i, 4
  %68 = icmp ult i64 %.01116.i.i, 100000
  br i1 %68, label %bulklen.exit, label %.lr.ph.i.i

bulklen.exit:                                     ; preds = %65, %.lr.ph.split, %55, %59, %63
  %.012.i.i = phi i32 [ %56, %55 ], [ %60, %59 ], [ %64, %63 ], [ 1, %.lr.ph.split ], [ %67, %65 ]
  %69 = add i32 %.012.i.i, 3
  %70 = zext i32 %69 to i64
  %71 = add i64 %.03855, 2
  %72 = add i64 %71, %52
  %73 = add i64 %72, %70
  %indvars.iv.next = add nuw nsw i64 %indvars.iv, 1
  %exitcond.not = icmp eq i64 %indvars.iv.next, %wide.trip.count85
  br i1 %exitcond.not, label %._crit_edge, label %.lr.ph.split

._crit_edge:                                      ; preds = %bulklen.exit, %bulklen.exit.us, %countDigits.exit
  %.038.lcssa = phi i64 [ %25, %countDigits.exit ], [ %50, %bulklen.exit.us ], [ %73, %bulklen.exit ]
  %74 = tail call ptr @hi_sdsempty() #13
  %75 = icmp eq ptr %74, null
  br i1 %75, label %96, label %76

76:                                               ; preds = %._crit_edge
  %77 = tail call ptr @hi_sdsMakeRoomFor(ptr noundef nonnull %74, i64 noundef %.038.lcssa) #13
  %78 = icmp eq ptr %77, null
  br i1 %78, label %79, label %80

79:                                               ; preds = %76
  tail call void @hi_sdsfree(ptr noundef nonnull %74) #13
  br label %96

80:                                               ; preds = %76
  %81 = tail call ptr (ptr, ptr, ...) @hi_sdscatfmt(ptr noundef nonnull %77, ptr noundef nonnull @.str.4, i32 noundef %1) #13
  br i1 %26, label %.lr.ph60, label %._crit_edge61

.lr.ph60:                                         ; preds = %80
  %.not = icmp eq ptr %3, null
  %wide.trip.count95 = zext nneg i32 %1 to i64
  br i1 %.not, label %.lr.ph60.split.us, label %.lr.ph60.split

.lr.ph60.split.us:                                ; preds = %.lr.ph60, %.lr.ph60.split.us
  %indvars.iv92 = phi i64 [ %indvars.iv.next93, %.lr.ph60.split.us ], [ 0, %.lr.ph60 ]
  %.04057.us = phi ptr [ %88, %.lr.ph60.split.us ], [ %81, %.lr.ph60 ]
  %82 = getelementptr inbounds nuw ptr, ptr %2, i64 %indvars.iv92
  %83 = load ptr, ptr %82, align 8, !tbaa !24
  %84 = tail call i64 @strlen(ptr noundef nonnull dereferenceable(1) %83) #14
  %85 = tail call ptr (ptr, ptr, ...) @hi_sdscatfmt(ptr noundef %.04057.us, ptr noundef nonnull @.str.5, i64 noundef %84) #13
  %86 = load ptr, ptr %82, align 8, !tbaa !24
  %87 = tail call ptr @hi_sdscatlen(ptr noundef %85, ptr noundef %86, i64 noundef %84) #13
  %88 = tail call ptr @hi_sdscatlen(ptr noundef %87, ptr noundef nonnull @.str.6, i64 noundef 2) #13
  %indvars.iv.next93 = add nuw nsw i64 %indvars.iv92, 1
  %exitcond96.not = icmp eq i64 %indvars.iv.next93, %wide.trip.count95
  br i1 %exitcond96.not, label %._crit_edge61, label %.lr.ph60.split.us

.lr.ph60.split:                                   ; preds = %.lr.ph60, %.lr.ph60.split
  %indvars.iv87 = phi i64 [ %indvars.iv.next88, %.lr.ph60.split ], [ 0, %.lr.ph60 ]
  %.04057 = phi ptr [ %95, %.lr.ph60.split ], [ %81, %.lr.ph60 ]
  %89 = getelementptr inbounds nuw i64, ptr %3, i64 %indvars.iv87
  %90 = load i64, ptr %89, align 8, !tbaa !28
  %91 = tail call ptr (ptr, ptr, ...) @hi_sdscatfmt(ptr noundef %.04057, ptr noundef nonnull @.str.5, i64 noundef %90) #13
  %92 = getelementptr inbounds nuw ptr, ptr %2, i64 %indvars.iv87
  %93 = load ptr, ptr %92, align 8, !tbaa !24
  %94 = tail call ptr @hi_sdscatlen(ptr noundef %91, ptr noundef %93, i64 noundef %90) #13
  %95 = tail call ptr @hi_sdscatlen(ptr noundef %94, ptr noundef nonnull @.str.6, i64 noundef 2) #13
  %indvars.iv.next88 = add nuw nsw i64 %indvars.iv87, 1
  %exitcond91.not = icmp eq i64 %indvars.iv.next88, %wide.trip.count95
  br i1 %exitcond91.not, label %._crit_edge61, label %.lr.ph60.split

._crit_edge61:                                    ; preds = %.lr.ph60.split, %.lr.ph60.split.us, %80
  %.040.lcssa = phi ptr [ %81, %80 ], [ %88, %.lr.ph60.split.us ], [ %95, %.lr.ph60.split ]
  store ptr %.040.lcssa, ptr %0, align 8, !tbaa !24
  br label %96

96:                                               ; preds = %._crit_edge, %4, %._crit_edge61, %79
  %.039 = phi i64 [ -1, %79 ], [ %.038.lcssa, %._crit_edge61 ], [ -1, %4 ], [ -1, %._crit_edge ]
  ret i64 %.039
}